target datalayout = "e-m:e-p270:32:32-p271:32:32-p272:64:64-i64:64-i128:128-f80:128-n8:16:32:64-S128"
target triple = "x86_64-pc-linux-gnu"

%"class.icu_77::MaybeStackArray" = type <{ ptr, i32, i8, [40 x i8], [3 x i8] }>
%"class.icu_77::CharString" = type { %"class.icu_77::MaybeStackArray", i32, [4 x i8] }
%"class.std::basic_string_view" = type { i64, ptr }
%"class.icu_77::StringPiece" = type <{ ptr, i32, [4 x i8] }>

@_ZN12_GLOBAL__N_111_kCountriesE = internal constant [10 x i8] c"Countries\00", align 1
@_ZN12_GLOBAL__N_110_kVariantsE = internal constant [9 x i8] c"Variants\00", align 1
@.str = private unnamed_addr constant [14 x i8] c"icudt77l-lang\00", align 1
@.str.2 = private unnamed_addr constant [4 x i8] c"und\00", align 1
@.str.3 = private unnamed_addr constant [16 x i8] c"icudt77l-region\00", align 1
@_ZN6icu_7715MaybeStackArrayIcLi40EED1Ev = weak_odr unnamed_addr alias void (ptr), ptr @_ZN6icu_7715MaybeStackArrayIcLi40EED2Ev

; Function Attrs: mustprogress nounwind uwtable
define weak_odr noundef ptr @_ZNK6icu_7715MaybeStackArrayIcLi40EE8getAliasEv(ptr noundef nonnull align 8 dereferenceable(53) %0) #0 comdat align 2 {
  %2 = alloca ptr, align 8
  store ptr %0, ptr %2, align 8, !tbaa !3
  %3 = load ptr, ptr %2, align 8
  %4 = getelementptr inbounds nuw %"class.icu_77::MaybeStackArray", ptr %3, i32 0, i32 0
  %5 = load ptr, ptr %4, align 8, !tbaa !8
  ret ptr %5
}

; Function Attrs: mustprogress nounwind uwtable
define linkonce_odr noundef i32 @_ZNK6icu_7711StringPiece6lengthEv(ptr noundef nonnull align 8 dereferenceable(12) %0) #0 comdat align 2 {
  %2 = alloca ptr, align 8
  store ptr %0, ptr %2, align 8, !tbaa !71
  %3 = load ptr, ptr %2, align 8
  %4 = getelementptr inbounds nuw %"class.icu_77::StringPiece", ptr %3, i32 0, i32 1
  %5 = load i32, ptr %4, align 8, !tbaa !75
  ret i32 %5
}

; Function Attrs: mustprogress nounwind uwtable
define linkonce_odr noundef ptr @_ZNK6icu_7711StringPiece4dataEv(ptr noundef nonnull align 8 dereferenceable(12) %0) #0 comdat align 2 {
  %2 = alloca ptr, align 8
  store ptr %0, ptr %2, align 8, !tbaa !71
  %3 = load ptr, ptr %2, align 8
  %4 = getelementptr inbounds nuw %"class.icu_77::StringPiece", ptr %3, i32 0, i32 0
  %5 = load ptr, ptr %4, align 8, !tbaa !73
  ret ptr %5
}

; Function Attrs: noinline noreturn nounwind uwtable
define linkonce_odr hidden void @__clang_call_terminate(ptr noundef %0) #4 comdat {
  %2 = call ptr @__cxa_begin_catch(ptr %0) #11
  call void @_ZSt9terminatev() #13
  unreachable
}

; Function Attrs: mustprogress nounwind uwtable
define linkonce_odr noundef i64 @_ZNSt11char_traitsIcE6lengthEPKc(ptr noundef %0) #0 comdat align 2 {
  %2 = alloca ptr, align 8
  store ptr %0, ptr %2, align 8, !tbaa !17
  %3 = load ptr, ptr %2, align 8, !tbaa !17
  %4 = call i64 @strlen(ptr noundef %3) #11
  ret i64 %4
}

; Function Attrs: mustprogress nounwind uwtable
define linkonce_odr noundef ptr @_ZN6icu_7710CharString4dataEv(ptr noundef nonnull align 8 dereferenceable(60) %0) #0 comdat align 2 {
  %2 = alloca ptr, align 8
  store ptr %0, ptr %2, align 8, !tbaa !62
  %3 = load ptr, ptr %2, align 8
  %4 = getelementptr inbounds nuw %"class.icu_77::CharString", ptr %3, i32 0, i32 0
  %5 = call noundef ptr @_ZNK6icu_7715MaybeStackArrayIcLi40EE8getAliasEv(ptr noundef nonnull align 8 dereferenceable(53) %4)
  ret ptr %5
}

; Function Attrs: mustprogress nounwind uwtable
define linkonce_odr void @_ZN6icu_7710CharStringD2Ev(ptr noundef nonnull align 8 dereferenceable(60) %0) unnamed_addr #0 comdat align 2 {
  %2 = alloca ptr, align 8
  store ptr %0, ptr %2, align 8, !tbaa !62
  %3 = load ptr, ptr %2, align 8
  %4 = getelementptr inbounds nuw %"class.icu_77::CharString", ptr %3, i32 0, i32 0
  call void @_ZN6icu_7715MaybeStackArrayIcLi40EED1Ev(ptr noundef nonnull align 8 dereferenceable(53) %4) #11
  ret void
}

; Function Attrs: mustprogress uwtable
define linkonce_odr noundef nonnull align 8 dereferenceable(60) ptr @_ZN6icu_7710CharString6appendENS_11StringPieceER10UErrorCode(ptr noundef nonnull align 8 dereferenceable(60) %0, ptr %1, i32 %2, ptr noundef nonnull align 4 dereferenceable(4) %3) #1 comdat align 2 {
  %5 = alloca %"class.icu_77::StringPiece", align 8
  %6 = alloca ptr, align 8
  %7 = alloca ptr, align 8
  %8 = getelementptr inbounds nuw { ptr, i32 }, ptr %5, i32 0, i32 0
  store ptr %1, ptr %8, align 8
  %9 = getelementptr inbounds nuw { ptr, i32 }, ptr %5, i32 0, i32 1
  store i32 %2, ptr %9, align 8
  store ptr %0, ptr %6, align 8, !tbaa !62
  store ptr %3, ptr %7, align 8, !tbaa !22
  %10 = load ptr, ptr %6, align 8
  %11 = call noundef ptr @_ZNK6icu_7711StringPiece4dataEv(ptr noundef nonnull align 8 dereferenceable(12) %5)
  %12 = call noundef i32 @_ZNK6icu_7711StringPiece6lengthEv(ptr noundef nonnull align 8 dereferenceable(12) %5)
  %13 = load ptr, ptr %7, align 8, !tbaa !22
  %14 = call noundef nonnull align 8 dereferenceable(60) ptr @_ZN6icu_7710CharString6appendEPKciR10UErrorCode(ptr noundef nonnull align 8 dereferenceable(60) %10, ptr noundef %11, i32 noundef %12, ptr noundef nonnull align 4 dereferenceable(4) %13)
  ret ptr %14
}

; Function Attrs: mustprogress nounwind uwtable
define linkonce_odr noundef signext i8 @_ZNK6icu_7710CharString7isEmptyEv(ptr noundef nonnull align 8 dereferenceable(60) %0) #0 comdat align 2 {
  %2 = alloca ptr, align 8
  store ptr %0, ptr %2, align 8, !tbaa !62
  %3 = load ptr, ptr %2, align 8
  %4 = getelementptr inbounds nuw %"class.icu_77::CharString", ptr %3, i32 0, i32 1
  %5 = load i32, ptr %4, align 8, !tbaa !64
  %6 = icmp eq i32 %5, 0
  %7 = zext i1 %6 to i8
  ret i8 %7
}

; Function Attrs: mustprogress nounwind uwtable
define linkonce_odr void @_ZNSt17basic_string_viewIcSt11char_traitsIcEEC2EPKc(ptr noundef nonnull align 8 dereferenceable(16) %0, ptr noundef nonnull %1) unnamed_addr #0 comdat align 2 personality ptr @__gxx_personality_v0 {
  %3 = alloca ptr, align 8
  %4 = alloca ptr, align 8
  store ptr %0, ptr %3, align 8, !tbaa !66
  store ptr %1, ptr %4, align 8, !tbaa !17
  %5 = load ptr, ptr %3, align 8
  %6 = getelementptr inbounds nuw %"class.std::basic_string_view", ptr %5, i32 0, i32 0
  %7 = load ptr, ptr %4, align 8, !tbaa !17
  %8 = invoke noundef i64 @_ZNSt11char_traitsIcE6lengthEPKc(ptr noundef %7)
          to label %9 unwind label %12

9:                                                ; preds = %2
  store i64 %8, ptr %6, align 8, !tbaa !68
  %10 = getelementptr inbounds nuw %"class.std::basic_string_view", ptr %5, i32 0, i32 1
  %11 = load ptr, ptr %4, align 8, !tbaa !17
  store ptr %11, ptr %10, align 8, !tbaa !70
  ret void

12:                                               ; preds = %2
  %13 = landingpad { ptr, i32 }
          catch ptr null
  %14 = extractvalue { ptr, i32 } %13, 0
  call void @__clang_call_terminate(ptr %14) #13
  unreachable
}

; Function Attrs: inlinehint mustprogress nounwind uwtable
define internal noundef signext i8 @_ZL9U_FAILURE10UErrorCode(i32 noundef %0) #2 {
  %2 = alloca i32, align 4
  store i32 %0, ptr %2, align 4, !tbaa !15
  %3 = load i32, ptr %2, align 4, !tbaa !15
  %4 = icmp sgt i32 %3, 0
  %5 = zext i1 %4 to i8
  ret i8 %5
}

; Function Attrs: mustprogress uwtable
define internal noundef i32 @_ZN12_GLOBAL__N_127_getDisplayNameForComponentEPKcS1_PDsiPFN6icu_7710CharStringESt17basic_string_viewIcSt11char_traitsIcEER10UErrorCodeES1_SA_(ptr noundef %0, ptr noundef %1, ptr noundef %2, i32 noundef %3, ptr noundef %4, ptr noundef %5, ptr noundef nonnull align 4 dereferenceable(4) %6) #1 personality ptr @__gxx_personality_v0 {
  %8 = alloca i32, align 4
  %9 = alloca ptr, align 8
  %10 = alloca ptr, align 8
  %11 = alloca ptr, align 8
  %12 = alloca i32, align 4
  %13 = alloca ptr, align 8
  %14 = alloca ptr, align 8
  %15 = alloca ptr, align 8
  %16 = alloca i32, align 4
  %17 = alloca ptr, align 8
  %18 = alloca i32, align 4
  %19 = alloca %"class.icu_77::CharString", align 8
  %20 = alloca %"class.std::basic_string_view", align 8
  %21 = alloca ptr, align 8
  %22 = alloca i32, align 4
  %23 = alloca %"class.icu_77::StringPiece", align 8
  store ptr %0, ptr %9, align 8, !tbaa !17
  store ptr %1, ptr %10, align 8, !tbaa !17
  store ptr %2, ptr %11, align 8, !tbaa !27
  store i32 %3, ptr %12, align 4, !tbaa !14
  store ptr %4, ptr %13, align 8, !tbaa !22
  store ptr %5, ptr %14, align 8, !tbaa !17
  store ptr %6, ptr %15, align 8, !tbaa !22
  %24 = load ptr, ptr %15, align 8, !tbaa !22
  %25 = load i32, ptr %24, align 4, !tbaa !15
  %26 = call noundef signext i8 @_ZL9U_FAILURE10UErrorCode(i32 noundef %25)
  %27 = icmp ne i8 %26, 0
  br i1 %27, label %28, label %29

28:                                               ; preds = %7
  store i32 0, ptr %8, align 4
  br label %102

29:                                               ; preds = %7
  call void @llvm.lifetime.start.p0(i64 4, ptr %16) #11
  call void @llvm.lifetime.start.p0(i64 8, ptr %17) #11
  store ptr null, ptr %17, align 8, !tbaa !17
  %30 = load i32, ptr %12, align 4, !tbaa !14
  %31 = icmp slt i32 %30, 0
  br i1 %31, label %38, label %32

32:                                               ; preds = %29
  %33 = load i32, ptr %12, align 4, !tbaa !14
  %34 = icmp sgt i32 %33, 0
  br i1 %34, label %35, label %40

35:                                               ; preds = %32
  %36 = load ptr, ptr %11, align 8, !tbaa !27
  %37 = icmp eq ptr %36, null
  br i1 %37, label %38, label %40

38:                                               ; preds = %35, %29
  %39 = load ptr, ptr %15, align 8, !tbaa !22
  store i32 1, ptr %39, align 4, !tbaa !15
  store i32 0, ptr %8, align 4
  store i32 1, ptr %18, align 4
  br label %101

40:                                               ; preds = %35, %32
  %41 = load ptr, ptr %9, align 8, !tbaa !17
  %42 = icmp eq ptr %41, null
  br i1 %42, label %43, label %45

43:                                               ; preds = %40
  %44 = call ptr @uloc_getDefault_77()
  store ptr %44, ptr %9, align 8, !tbaa !17
  br label %45

45:                                               ; preds = %43, %40
  store i32 0, ptr %16, align 4, !tbaa !15
  call void @llvm.lifetime.start.p0(i64 64, ptr %19) #11
  %46 = load ptr, ptr %13, align 8, !tbaa !22
  %47 = load ptr, ptr %9, align 8, !tbaa !17
  call void @_ZNSt17basic_string_viewIcSt11char_traitsIcEEC2EPKc(ptr noundef nonnull align 8 dereferenceable(16) %20, ptr noundef %47) #11
  %48 = getelementptr inbounds nuw { i64, ptr }, ptr %20, i32 0, i32 0
  %49 = load i64, ptr %48, align 8
  %50 = getelementptr inbounds nuw { i64, ptr }, ptr %20, i32 0, i32 1
  %51 = load ptr, ptr %50, align 8
  call void %46(ptr dead_on_unwind writable sret(%"class.icu_77::CharString") align 8 %19, i64 %49, ptr %51, ptr noundef nonnull align 4 dereferenceable(4) %16)
  %52 = load i32, ptr %16, align 4, !tbaa !15
  %53 = call noundef signext i8 @_ZL9U_FAILURE10UErrorCode(i32 noundef %52)
  %54 = icmp ne i8 %53, 0
  br i1 %54, label %55, label %57

55:                                               ; preds = %45
  %56 = load ptr, ptr %15, align 8, !tbaa !22
  store i32 1, ptr %56, align 4, !tbaa !15
  store i32 0, ptr %8, align 4
  store i32 1, ptr %18, align 4
  br label %100

57:                                               ; preds = %45
  %58 = invoke noundef signext i8 @_ZNK6icu_7710CharString7isEmptyEv(ptr noundef nonnull align 8 dereferenceable(60) %19)
          to label %59 unwind label %73

59:                                               ; preds = %57
  %60 = icmp ne i8 %58, 0
  br i1 %60, label %61, label %84

61:                                               ; preds = %59
  %62 = load ptr, ptr %13, align 8, !tbaa !22
  %63 = icmp eq ptr %62, @_Z22ulocimp_getLanguage_77St17basic_string_viewIcSt11char_traitsIcEER10UErrorCode
  br i1 %63, label %64, label %77

64:                                               ; preds = %61
  invoke void @_ZN6icu_7711StringPieceC1EPKc(ptr noundef nonnull align 8 dereferenceable(12) %23, ptr noundef @.str.2)
          to label %65 unwind label %73

65:                                               ; preds = %64
  %66 = load ptr, ptr %15, align 8, !tbaa !22
  %67 = getelementptr inbounds nuw { ptr, i32 }, ptr %23, i32 0, i32 0
  %68 = load ptr, ptr %67, align 8
  %69 = getelementptr inbounds nuw { ptr, i32 }, ptr %23, i32 0, i32 1
  %70 = load i32, ptr %69, align 8
  %71 = invoke noundef nonnull align 8 dereferenceable(60) ptr @_ZN6icu_7710CharString6appendENS_11StringPieceER10UErrorCode(ptr noundef nonnull align 8 dereferenceable(60) %19, ptr %68, i32 %70, ptr noundef nonnull align 4 dereferenceable(4) %66)
          to label %72 unwind label %73

72:                                               ; preds = %65
  br label %83

73:                                               ; preds = %94, %92, %84, %77, %65, %64, %57
  %74 = landingpad { ptr, i32 }
          cleanup
  %75 = extractvalue { ptr, i32 } %74, 0
  store ptr %75, ptr %21, align 8
  %76 = extractvalue { ptr, i32 } %74, 1
  store i32 %76, ptr %22, align 4
  call void @_ZN6icu_7710CharStringD2Ev(ptr noundef nonnull align 8 dereferenceable(60) %19) #11
  call void @llvm.lifetime.end.p0(i64 64, ptr %19) #11
  call void @llvm.lifetime.end.p0(i64 8, ptr %17) #11
  call void @llvm.lifetime.end.p0(i64 4, ptr %16) #11
  br label %104

77:                                               ; preds = %61
  %78 = load ptr, ptr %11, align 8, !tbaa !27
  %79 = load i32, ptr %12, align 4, !tbaa !14
  %80 = load ptr, ptr %15, align 8, !tbaa !22
  %81 = invoke i32 @u_terminateUChars_77(ptr noundef %78, i32 noundef %79, i32 noundef 0, ptr noundef %80)
          to label %82 unwind label %73

82:                                               ; preds = %77
  store i32 %81, ptr %8, align 4
  store i32 1, ptr %18, align 4
  br label %100

83:                                               ; preds = %72
  br label %84

84:                                               ; preds = %83, %59
  %85 = load ptr, ptr %14, align 8, !tbaa !17
  %86 = icmp eq ptr %85, @_ZN12_GLOBAL__N_111_kCountriesE
  %87 = select i1 %86, ptr @.str.3, ptr @.str
  store ptr %87, ptr %17, align 8, !tbaa !17
  %88 = load ptr, ptr %17, align 8, !tbaa !17
  %89 = load ptr, ptr %10, align 8, !tbaa !17
  %90 = load ptr, ptr %14, align 8, !tbaa !17
  %91 = invoke noundef ptr @_ZN6icu_7710CharString4dataEv(ptr noundef nonnull align 8 dereferenceable(60) %19)
          to label %92 unwind label %73

92:                                               ; preds = %84
  %93 = invoke noundef ptr @_ZN6icu_7710CharString4dataEv(ptr noundef nonnull align 8 dereferenceable(60) %19)
          to label %94 unwind label %73

94:                                               ; preds = %92
  %95 = load ptr, ptr %11, align 8, !tbaa !27
  %96 = load i32, ptr %12, align 4, !tbaa !14
  %97 = load ptr, ptr %15, align 8, !tbaa !22
  %98 = invoke noundef i32 @_ZN12_GLOBAL__N_119_getStringOrCopyKeyEPKcS1_S1_S1_S1_S1_PDsiR10UErrorCode(ptr noundef %88, ptr noundef %89, ptr noundef %90, ptr noundef null, ptr noundef %91, ptr noundef %93, ptr noundef %95, i32 noundef %96, ptr noundef nonnull align 4 dereferenceable(4) %97)
          to label %99 unwind label %73

99:                                               ; preds = %94
  store i32 %98, ptr %8, align 4
  store i32 1, ptr %18, align 4
  br label %100

100:                                              ; preds = %99, %82, %55
  call void @_ZN6icu_7710CharStringD2Ev(ptr noundef nonnull align 8 dereferenceable(60) %19) #11
  call void @llvm.lifetime.end.p0(i64 64, ptr %19) #11
  br label %101

101:                                              ; preds = %100, %38
  call void @llvm.lifetime.end.p0(i64 8, ptr %17) #11
  call void @llvm.lifetime.end.p0(i64 4, ptr %16) #11
  br label %102

102:                                              ; preds = %101, %28
  %103 = load i32, ptr %8, align 4
  ret i32 %103

104:                                              ; preds = %73
  %105 = load ptr, ptr %21, align 8
  %106 = load i32, ptr %22, align 4
  %107 = insertvalue { ptr, i32 } poison, ptr %105, 0
  %108 = insertvalue { ptr, i32 } %107, i32 %106, 1
  resume { ptr, i32 } %108
}

; Function Attrs: mustprogress uwtable
define i32 @uloc_getDisplayVariant_77(ptr noundef %0, ptr noundef %1, ptr noundef %2, i32 noundef %3, ptr noundef %4) #1 {
  %6 = alloca ptr, align 8
  %7 = alloca ptr, align 8
  %8 = alloca ptr, align 8
  %9 = alloca i32, align 4
  %10 = alloca ptr, align 8
  store ptr %0, ptr %6, align 8, !tbaa !17
  store ptr %1, ptr %7, align 8, !tbaa !17
  store ptr %2, ptr %8, align 8, !tbaa !27
  store i32 %3, ptr %9, align 4, !tbaa !14
  store ptr %4, ptr %10, align 8, !tbaa !22
  %11 = load ptr, ptr %6, align 8, !tbaa !17
  %12 = load ptr, ptr %7, align 8, !tbaa !17
  %13 = load ptr, ptr %8, align 8, !tbaa !27
  %14 = load i32, ptr %9, align 4, !tbaa !14
  %15 = load ptr, ptr %10, align 8, !tbaa !22
  %16 = call noundef i32 @_ZN12_GLOBAL__N_127_getDisplayNameForComponentEPKcS1_PDsiPFN6icu_7710CharStringESt17basic_string_viewIcSt11char_traitsIcEER10UErrorCodeES1_SA_(ptr noundef %11, ptr noundef %12, ptr noundef %13, i32 noundef %14, ptr noundef @_Z21ulocimp_getVariant_77St17basic_string_viewIcSt11char_traitsIcEER10UErrorCode, ptr noundef @_ZN12_GLOBAL__N_110_kVariantsE, ptr noundef nonnull align 4 dereferenceable(4) %15)
  ret i32 %16
}